; Function Attrs: mustprogress nounwind uwtable
define dso_local void @_ZN4llvm16RISCVELFStreamer17emitMappingSymbolENS_9StringRefE(ptr noundef nonnull align 8 dereferenceable(6636) %0, ptr %1, i64 %2) local_unnamed_addr #0 align 2 {
  %4 = getelementptr inbounds nuw i8, ptr %0, i64 8
  %5 = load ptr, ptr %4, align 8
  %6 = tail call noundef ptr @_ZN4llvm9MCContext17createLocalSymbolENS_9StringRefE(ptr noundef nonnull align 8 dereferenceable(2432) %5, ptr %1, i64 %2) #15
  %7 = load ptr, ptr %0, align 8
  %8 = getelementptr inbounds i8, ptr %7, i64 200
  %9 = load ptr, ptr %8, align 8
  tail call void %9(ptr noundef nonnull align 8 dereferenceable(6601) %0, ptr noundef %6, ptr null) #15
  tail call void @_ZNK4llvm11MCSymbolELF7setTypeEj(ptr noundef nonnull align 8 dereferenceable(40) %6, i32 noundef 0) #15
  tail call void @_ZNK4llvm11MCSymbolELF10setBindingEj(ptr noundef nonnull align 8 dereferenceable(40) %6, i32 noundef 0) #15
  ret void
}